target datalayout = "e-m:e-p270:32:32-p271:32:32-p272:64:64-i64:64-i128:128-f80:128-n8:16:32:64-S128"
target triple = "x86_64-pc-linux-gnu"

%struct.Curl_easy = type { i32, i64, i64, ptr, %struct.Curl_llist_node, %struct.Curl_llist_node, i32, i32, %struct.Curl_message, %struct.easy_pollset, %struct.Names, ptr, ptr, ptr, %struct.SingleRequest, %struct.UserDefined, ptr, ptr, %struct.Progress, %struct.UrlState, ptr, %struct.PureInfo, %struct.curl_tlssessioninfo }
%struct.Curl_llist_node = type { ptr, ptr, ptr, ptr }
%struct.Curl_message = type { %struct.Curl_llist_node, %struct.CURLMsg }
%struct.CURLMsg = type { i32, ptr, %union.anon }
%union.anon = type { ptr }
%struct.easy_pollset = type { [5 x i32], i32, [5 x i8] }
%struct.Names = type { ptr, i32 }
%struct.SingleRequest = type <{ i64, i64, i64, i64, %struct.curltime, i32, i32, i32, i32, i64, i32, i32, i32, i32, ptr, ptr, %struct.bufq, i64, i64, ptr, ptr, %union.anon.0, ptr, i8, i32, [3 x i8] }>
%struct.curltime = type { i64, i32 }
%struct.bufq = type { ptr, ptr, ptr, ptr, i64, i64, i64, i32 }
%union.anon.0 = type { ptr }
%struct.UserDefined = type <{ ptr, ptr, ptr, ptr, ptr, ptr, i16, [6 x i8], i64, i64, i64, ptr, ptr, i64, i16, i16, [4 x i8], ptr, ptr, ptr, ptr, ptr, ptr, ptr, ptr, ptr, ptr, ptr, ptr, ptr, ptr, ptr, ptr, ptr, ptr, ptr, ptr, ptr, ptr, ptr, i32, i32, i32, i32, i32, [4 x i8], i64, i64, i64, i64, i64, i64, i64, i64, ptr, ptr, %struct.curl_mimepart, ptr, ptr, i64, i8, i8, i8, [5 x i8], %struct.ssl_config_data, %struct.ssl_config_data, ptr, i16, i8, i8, [4 x i8], %struct.ssl_general_config, i32, i32, i32, [4 x i8], ptr, ptr, i8, [7 x i8], i64, i8, i8, i8, i8, i32, ptr, ptr, ptr, i8, i8, [2 x i8], i32, [63 x ptr], [8 x ptr], i32, i32, i32, [4 x i8], ptr, ptr, ptr, ptr, ptr, i8, [3 x i8], i32, i32, i32, i64, %struct.Curl_data_priority, ptr, ptr, i64, ptr, i64, ptr, ptr, ptr, i8, [3 x i8], i32, i8, i8, i64, [6 x i8] }>
%struct.curl_mimepart = type { ptr, ptr, i32, i32, ptr, ptr, ptr, ptr, ptr, ptr, ptr, ptr, ptr, ptr, ptr, i64, %struct.mime_state, ptr, %struct.mime_encoder_state, i64 }
%struct.mime_state = type { i32, ptr, i64 }
%struct.mime_encoder_state = type { i64, i64, i64, [256 x i8] }
%struct.ssl_config_data = type { %struct.ssl_primary_config, i64, ptr, ptr, ptr, ptr, ptr, ptr, ptr, i16 }
%struct.ssl_primary_config = type { ptr, ptr, ptr, ptr, ptr, ptr, ptr, ptr, ptr, ptr, ptr, ptr, i8, i32, i8, i8 }
%struct.ssl_general_config = type { i64, i32 }
%struct.Curl_data_priority = type { ptr, ptr, i32, i8 }
%struct.Progress = type { i64, %struct.pgrs_dir, %struct.pgrs_dir, i64, i64, i32, i32, i64, i64, i64, i64, i64, i64, i64, i64, i64, %struct.curltime, %struct.curltime, %struct.curltime, %struct.curltime, [6 x i64], [6 x %struct.curltime], i32, i8 }
%struct.pgrs_dir = type { i64, i64, i64, %struct.pgrs_measure }
%struct.pgrs_measure = type { %struct.curltime, i64 }
%struct.UrlState = type { %struct.curltime, i64, i64, %struct.dynbuf, ptr, i64, ptr, i32, i32, i32, ptr, i64, i32, i64, i32, ptr, %struct.digestdata, %struct.digestdata, %struct.auth, %struct.auth, %struct.Curl_async, ptr, %struct.curltime, %struct.Curl_tree, %struct.Curl_llist, [15 x %struct.time_node], ptr, ptr, i64, i64, %struct.Curl_data_priority, ptr, ptr, ptr, %struct.urlpieces, ptr, ptr, ptr, ptr, ptr, i64, %struct.dynbuf, %struct.Curl_llist, [2 x %struct.curl_header], ptr, i32, ptr, ptr, %struct.store_netrc, %struct.dynamically_allocated_data, i8, i8, i8, i8, i32 }
%struct.digestdata = type { ptr, ptr, ptr, ptr, ptr, ptr, i32, i8, i8 }
%struct.auth = type { i64, i64, i64, i8 }
%struct.Curl_async = type { ptr, ptr, ptr, ptr, i32, i32, i8 }
%struct.Curl_tree = type { ptr, ptr, ptr, ptr, %struct.curltime, ptr }
%struct.time_node = type { %struct.Curl_llist_node, %struct.curltime, i32 }
%struct.urlpieces = type { ptr, ptr, ptr, ptr, ptr, ptr, ptr, ptr }
%struct.dynbuf = type { ptr, i64, i64, i64 }
%struct.Curl_llist = type { ptr, ptr, ptr, i64 }
%struct.curl_header = type { ptr, ptr, i64, i64, i32, ptr }
%struct.store_netrc = type { %struct.dynbuf, ptr, i8 }
%struct.dynamically_allocated_data = type { ptr, ptr, ptr, ptr, ptr, ptr, ptr, ptr, ptr, ptr, ptr, ptr, ptr }
%struct.PureInfo = type { i32, i32, i32, i64, i64, i64, i64, i64, ptr, ptr, i64, i32, %struct.ip_quadruple, i32, ptr, i32, %struct.curl_certinfo, i32, i8 }
%struct.ip_quadruple = type { [46 x i8], [46 x i8], i32, i32 }
%struct.curl_certinfo = type { i32, ptr }
%struct.curl_tlssessioninfo = type { i32, ptr }

; Function Attrs: nounwind uwtable
define dso_local i32 @curl_easy_pause(ptr noundef %0, i32 noundef %1) #4 {
  %3 = alloca i32, align 4
  %4 = alloca ptr, align 8
  %5 = alloca i32, align 4
  %6 = alloca ptr, align 8
  %7 = alloca i32, align 4
  %8 = alloca i32, align 4
  %9 = alloca i32, align 4
  %10 = alloca i8, align 1
  %11 = alloca i8, align 1
  %12 = alloca i8, align 1
  %13 = alloca i8, align 1
  %14 = alloca ptr, align 8
  %15 = alloca i32, align 4
  store ptr %0, ptr %4, align 8, !tbaa !14
  store i32 %1, ptr %5, align 4, !tbaa !8
  call void @llvm.lifetime.start.p0(i64 8, ptr %6) #10
  call void @llvm.lifetime.start.p0(i64 4, ptr %7) #10
  store i32 0, ptr %7, align 4, !tbaa !8
  call void @llvm.lifetime.start.p0(i64 4, ptr %8) #10
  call void @llvm.lifetime.start.p0(i64 4, ptr %9) #10
  call void @llvm.lifetime.start.p0(i64 1, ptr %10) #10
  store i8 0, ptr %10, align 1, !tbaa !10
  call void @llvm.lifetime.start.p0(i64 1, ptr %11) #10
  call void @llvm.lifetime.start.p0(i64 1, ptr %12) #10
  call void @llvm.lifetime.start.p0(i64 1, ptr %13) #10
  call void @llvm.lifetime.start.p0(i64 8, ptr %14) #10
  %16 = load ptr, ptr %4, align 8, !tbaa !14
  store ptr %16, ptr %14, align 8, !tbaa !20
  %17 = load ptr, ptr %14, align 8, !tbaa !20
  %18 = icmp ne ptr %17, null
  br i1 %18, label %19, label %29

19:                                               ; preds = %2
  %20 = load ptr, ptr %14, align 8, !tbaa !20
  %21 = getelementptr inbounds nuw %struct.Curl_easy, ptr %20, i32 0, i32 0
  %22 = load i32, ptr %21, align 8, !tbaa !94
  %23 = icmp eq i32 %22, -1059136595
  br i1 %23, label %24, label %29

24:                                               ; preds = %19
  %25 = load ptr, ptr %14, align 8, !tbaa !20
  %26 = getelementptr inbounds nuw %struct.Curl_easy, ptr %25, i32 0, i32 3
  %27 = load ptr, ptr %26, align 8, !tbaa !132
  %28 = icmp ne ptr %27, null
  br i1 %28, label %30, label %29

29:                                               ; preds = %24, %19, %2
  store i32 43, ptr %3, align 4
  store i32 1, ptr %15, align 4
  br label %187

30:                                               ; preds = %24
  %31 = load ptr, ptr %14, align 8, !tbaa !20
  %32 = call zeroext i1 @Curl_is_in_callback(ptr noundef %31)
  br i1 %32, label %33, label %34

33:                                               ; preds = %30
  store i8 1, ptr %10, align 1, !tbaa !10
  br label %34

34:                                               ; preds = %33, %30
  %35 = load ptr, ptr %14, align 8, !tbaa !20
  %36 = getelementptr inbounds nuw %struct.Curl_easy, ptr %35, i32 0, i32 14
  store ptr %36, ptr %6, align 8, !tbaa !133
  %37 = load ptr, ptr %6, align 8, !tbaa !133
  %38 = getelementptr inbounds nuw %struct.SingleRequest, ptr %37, i32 0, i32 12
  %39 = load i32, ptr %38, align 8, !tbaa !135
  %40 = and i32 %39, 48
  store i32 %40, ptr %8, align 4, !tbaa !8
  %41 = load ptr, ptr %6, align 8, !tbaa !133
  %42 = getelementptr inbounds nuw %struct.SingleRequest, ptr %41, i32 0, i32 12
  %43 = load i32, ptr %42, align 8, !tbaa !135
  %44 = and i32 %43, -49
  %45 = load i32, ptr %5, align 4, !tbaa !8
  %46 = and i32 %45, 1
  %47 = icmp ne i32 %46, 0
  %48 = select i1 %47, i32 16, i32 0
  %49 = or i32 %44, %48
  %50 = load i32, ptr %5, align 4, !tbaa !8
  %51 = and i32 %50, 4
  %52 = icmp ne i32 %51, 0
  %53 = select i1 %52, i32 32, i32 0
  %54 = or i32 %49, %53
  store i32 %54, ptr %9, align 4, !tbaa !8
  %55 = load i32, ptr %9, align 4, !tbaa !8
  %56 = and i32 %55, 48
  %57 = load i32, ptr %8, align 4, !tbaa !8
  %58 = icmp ne i32 %56, %57
  %59 = zext i1 %58 to i8
  store i8 %59, ptr %11, align 1, !tbaa !10
  %60 = load i32, ptr %9, align 4, !tbaa !8
  %61 = and i32 %60, 48
  %62 = icmp ne i32 %61, 48
  %63 = zext i1 %62 to i8
  store i8 %63, ptr %13, align 1, !tbaa !10
  %64 = load ptr, ptr %6, align 8, !tbaa !133
  %65 = getelementptr inbounds nuw %struct.SingleRequest, ptr %64, i32 0, i32 12
  %66 = load i32, ptr %65, align 8, !tbaa !135
  %67 = load i32, ptr %9, align 4, !tbaa !8
  %68 = xor i32 %67, -1
  %69 = and i32 %66, %68
  %70 = and i32 %69, 32
  %71 = icmp ne i32 %70, 0
  br i1 %71, label %72, label %84

72:                                               ; preds = %34
  %73 = load ptr, ptr %14, align 8, !tbaa !20
  %74 = getelementptr inbounds nuw %struct.Curl_easy, ptr %73, i32 0, i32 6
  %75 = load i32, ptr %74, align 8, !tbaa !136
  %76 = icmp eq i32 %75, 13
  br i1 %76, label %82, label %77

77:                                               ; preds = %72
  %78 = load ptr, ptr %14, align 8, !tbaa !20
  %79 = getelementptr inbounds nuw %struct.Curl_easy, ptr %78, i32 0, i32 6
  %80 = load i32, ptr %79, align 8, !tbaa !136
  %81 = icmp eq i32 %80, 14
  br label %82

82:                                               ; preds = %77, %72
  %83 = phi i1 [ true, %72 ], [ %81, %77 ]
  br label %84

84:                                               ; preds = %82, %34
  %85 = phi i1 [ false, %34 ], [ %83, %82 ]
  %86 = zext i1 %85 to i8
  store i8 %86, ptr %12, align 1, !tbaa !10
  %87 = load i32, ptr %9, align 4, !tbaa !8
  %88 = load ptr, ptr %6, align 8, !tbaa !133
  %89 = getelementptr inbounds nuw %struct.SingleRequest, ptr %88, i32 0, i32 12
  store i32 %87, ptr %89, align 8, !tbaa !135
  %90 = load i8, ptr %13, align 1, !tbaa !10, !range !12, !noundef !13
  %91 = trunc i8 %90 to i1
  br i1 %91, label %92, label %138

92:                                               ; preds = %84
  %93 = load ptr, ptr %14, align 8, !tbaa !20
  call void @Curl_expire(ptr noundef %93, i64 noundef 0, i32 noundef 8)
  %94 = load ptr, ptr %14, align 8, !tbaa !20
  %95 = getelementptr inbounds nuw %struct.Curl_easy, ptr %94, i32 0, i32 19
  %96 = getelementptr inbounds nuw %struct.UrlState, ptr %95, i32 0, i32 0
  %97 = getelementptr inbounds nuw %struct.curltime, ptr %96, i32 0, i32 0
  store i64 0, ptr %97, align 8, !tbaa !137
  %98 = load i32, ptr %9, align 4, !tbaa !8
  %99 = and i32 %98, 32
  %100 = icmp ne i32 %99, 0
  br i1 %100, label %109, label %101

101:                                              ; preds = %92
  %102 = load ptr, ptr %14, align 8, !tbaa !20
  %103 = getelementptr inbounds nuw %struct.Curl_easy, ptr %102, i32 0, i32 19
  %104 = getelementptr inbounds nuw %struct.UrlState, ptr %103, i32 0, i32 53
  %105 = load i8, ptr %104, align 1, !tbaa !138
  %106 = zext i8 %105 to i32
  %107 = or i32 %106, 2
  %108 = trunc i32 %107 to i8
  store i8 %108, ptr %104, align 1, !tbaa !138
  br label %109

109:                                              ; preds = %101, %92
  %110 = load i32, ptr %9, align 4, !tbaa !8
  %111 = and i32 %110, 16
  %112 = icmp ne i32 %111, 0
  br i1 %112, label %121, label %113

113:                                              ; preds = %109
  %114 = load ptr, ptr %14, align 8, !tbaa !20
  %115 = getelementptr inbounds nuw %struct.Curl_easy, ptr %114, i32 0, i32 19
  %116 = getelementptr inbounds nuw %struct.UrlState, ptr %115, i32 0, i32 53
  %117 = load i8, ptr %116, align 1, !tbaa !138
  %118 = zext i8 %117 to i32
  %119 = or i32 %118, 1
  %120 = trunc i32 %119 to i8
  store i8 %120, ptr %116, align 1, !tbaa !138
  br label %121

121:                                              ; preds = %113, %109
  %122 = load i8, ptr %11, align 1, !tbaa !10, !range !12, !noundef !13
  %123 = trunc i8 %122 to i1
  br i1 %123, label %124, label %137

124:                                              ; preds = %121
  %125 = load ptr, ptr %14, align 8, !tbaa !20
  %126 = getelementptr inbounds nuw %struct.Curl_easy, ptr %125, i32 0, i32 11
  %127 = load ptr, ptr %126, align 8, !tbaa !90
  %128 = icmp ne ptr %127, null
  br i1 %128, label %129, label %137

129:                                              ; preds = %124
  %130 = load ptr, ptr %14, align 8, !tbaa !20
  %131 = getelementptr inbounds nuw %struct.Curl_easy, ptr %130, i32 0, i32 11
  %132 = load ptr, ptr %131, align 8, !tbaa !90
  %133 = call i32 @Curl_update_timer(ptr noundef %132)
  %134 = icmp ne i32 %133, 0
  br i1 %134, label %135, label %136

135:                                              ; preds = %129
  store i32 42, ptr %7, align 4, !tbaa !8
  br label %163

136:                                              ; preds = %129
  br label %137

137:                                              ; preds = %136, %124, %121
  br label %138

138:                                              ; preds = %137, %84
  %139 = load i8, ptr %12, align 1, !tbaa !10, !range !12, !noundef !13
  %140 = trunc i8 %139 to i1
  br i1 %140, label %141, label %148

141:                                              ; preds = %138
  %142 = load ptr, ptr %14, align 8, !tbaa !20
  %143 = call i32 @Curl_creader_unpause(ptr noundef %142)
  store i32 %143, ptr %7, align 4, !tbaa !8
  %144 = load i32, ptr %7, align 4, !tbaa !8
  %145 = icmp ne i32 %144, 0
  br i1 %145, label %146, label %147

146:                                              ; preds = %141
  br label %163

147:                                              ; preds = %141
  br label %148

148:                                              ; preds = %147, %138
  %149 = load ptr, ptr %6, align 8, !tbaa !133
  %150 = getelementptr inbounds nuw %struct.SingleRequest, ptr %149, i32 0, i32 12
  %151 = load i32, ptr %150, align 8, !tbaa !135
  %152 = and i32 %151, 16
  %153 = icmp ne i32 %152, 0
  br i1 %153, label %162, label %154

154:                                              ; preds = %148
  %155 = load ptr, ptr %14, align 8, !tbaa !20
  %156 = call zeroext i1 @Curl_cwriter_is_paused(ptr noundef %155)
  br i1 %156, label %157, label %162

157:                                              ; preds = %154
  %158 = load ptr, ptr %14, align 8, !tbaa !20
  %159 = call i32 @Curl_conn_ev_data_pause(ptr noundef %158, i1 noundef zeroext false)
  %160 = load ptr, ptr %14, align 8, !tbaa !20
  %161 = call i32 @Curl_cwriter_unpause(ptr noundef %160)
  store i32 %161, ptr %7, align 4, !tbaa !8
  br label %162

162:                                              ; preds = %157, %154, %148
  br label %163

163:                                              ; preds = %162, %146, %135
  %164 = load i32, ptr %7, align 4, !tbaa !8
  %165 = icmp ne i32 %164, 0
  br i1 %165, label %180, label %166

166:                                              ; preds = %163
  %167 = load ptr, ptr %14, align 8, !tbaa !20
  %168 = getelementptr inbounds nuw %struct.Curl_easy, ptr %167, i32 0, i32 19
  %169 = getelementptr inbounds nuw %struct.UrlState, ptr %168, i32 0, i32 54
  %170 = load i32, ptr %169, align 4
  %171 = lshr i32 %170, 12
  %172 = and i32 %171, 1
  %173 = icmp ne i32 %172, 0
  br i1 %173, label %180, label %174

174:                                              ; preds = %166
  %175 = load i8, ptr %11, align 1, !tbaa !10, !range !12, !noundef !13
  %176 = trunc i8 %175 to i1
  br i1 %176, label %177, label %180

177:                                              ; preds = %174
  %178 = load ptr, ptr %14, align 8, !tbaa !20
  %179 = call i32 @Curl_updatesocket(ptr noundef %178)
  store i32 %179, ptr %7, align 4, !tbaa !8
  br label %180

180:                                              ; preds = %177, %174, %166, %163
  %181 = load i8, ptr %10, align 1, !tbaa !10, !range !12, !noundef !13
  %182 = trunc i8 %181 to i1
  br i1 %182, label %183, label %185

183:                                              ; preds = %180
  %184 = load ptr, ptr %14, align 8, !tbaa !20
  call void @Curl_set_in_callback(ptr noundef %184, i1 noundef zeroext true)
  br label %185

185:                                              ; preds = %183, %180
  %186 = load i32, ptr %7, align 4, !tbaa !8
  store i32 %186, ptr %3, align 4
  store i32 1, ptr %15, align 4
  br label %187

187:                                              ; preds = %185, %29
  call void @llvm.lifetime.end.p0(i64 8, ptr %14) #10
  call void @llvm.lifetime.end.p0(i64 1, ptr %13) #10
  call void @llvm.lifetime.end.p0(i64 1, ptr %12) #10
  call void @llvm.lifetime.end.p0(i64 1, ptr %11) #10
  call void @llvm.lifetime.end.p0(i64 1, ptr %10) #10
  call void @llvm.lifetime.end.p0(i64 4, ptr %9) #10
  call void @llvm.lifetime.end.p0(i64 4, ptr %8) #10
  call void @llvm.lifetime.end.p0(i64 4, ptr %7) #10
  call void @llvm.lifetime.end.p0(i64 8, ptr %6) #10
  %188 = load i32, ptr %3, align 4
  ret i32 %188
}